; Function Attrs: mustprogress nofree norecurse nosync nounwind willreturn memory(read, inaccessiblemem: none) uwtable
define hidden range(i32 0, 2) i32 @_glfwWindowHoveredNull(ptr noundef readonly captures(none) %0) local_unnamed_addr #7 {
  %2 = load i32, ptr getelementptr inbounds nuw (i8, ptr @_glfw, i64 142744), align 8, !tbaa !172
  %3 = getelementptr inbounds nuw i8, ptr %0, i64 3368
  %4 = load i32, ptr %3, align 8, !tbaa !58
  %.not = icmp slt i32 %2, %4
  br i1 %.not, label %19, label %5

5:                                                ; preds = %1
  %6 = load i32, ptr getelementptr inbounds nuw (i8, ptr @_glfw, i64 142748), align 4, !tbaa !173
  %7 = getelementptr inbounds nuw i8, ptr %0, i64 3372
  %8 = load i32, ptr %7, align 4, !tbaa !59
  %.not9 = icmp slt i32 %6, %8
  br i1 %.not9, label %19, label %9

9:                                                ; preds = %5
  %10 = getelementptr inbounds nuw i8, ptr %0, i64 3376
  %11 = load i32, ptr %10, align 8, !tbaa !62
  %12 = add nsw i32 %11, %4
  %.not10.not = icmp slt i32 %2, %12
  br i1 %.not10.not, label %13, label %19

13:                                               ; preds = %9
  %14 = getelementptr inbounds nuw i8, ptr %0, i64 3380
  %15 = load i32, ptr %14, align 4, !tbaa !63
  %16 = add nsw i32 %15, %8
  %17 = icmp slt i32 %6, %16
  %18 = zext i1 %17 to i32
  br label %19

19:                                               ; preds = %13, %9, %5, %1
  %20 = phi i32 [ 0, %9 ], [ 0, %5 ], [ 0, %1 ], [ %18, %13 ]
  ret i32 %20
}